target datalayout = "e-m:e-p270:32:32-p271:32:32-p272:64:64-i64:64-i128:128-f80:128-n8:16:32:64-S128"
target triple = "x86_64-pc-linux-gnu"

@.str = private unnamed_addr constant [4 x i8] c"low\00", align 1
@.str.1 = private unnamed_addr constant [7 x i8] c"medium\00", align 1
@.str.2 = private unnamed_addr constant [5 x i8] c"high\00", align 1
@.str.3 = private unnamed_addr constant [7 x i8] c"highm1\00", align 1
@plugin_type = external constant [0 x i8], align 1
@.str.32 = private unnamed_addr constant [47 x i8] c"%s: %s: %s: %s: Invalid job GPU frequency (%s)\00", align 1
@__func__._xlate_freq_code = private unnamed_addr constant [17 x i8] c"_xlate_freq_code\00", align 1

; Function Attrs: nounwind uwtable
define internal i32 @_xlate_freq_code(ptr noundef %0) #0 {
  %2 = alloca i32, align 4
  %3 = alloca ptr, align 8
  store ptr %0, ptr %3, align 8
  %4 = load ptr, ptr %3, align 8
  %5 = icmp ne ptr %4, null
  br i1 %5, label %6, label %11

6:                                                ; preds = %1
  %7 = load ptr, ptr %3, align 8
  %8 = getelementptr inbounds i8, ptr %7, i64 0
  %9 = load i8, ptr %8, align 1
  %10 = icmp ne i8 %9, 0
  br i1 %10, label %12, label %11

11:                                               ; preds = %6, %1
  store i32 0, ptr %2, align 4
  br label %58

12:                                               ; preds = %6
  %13 = load ptr, ptr %3, align 8
  %14 = getelementptr inbounds i8, ptr %13, i64 0
  %15 = load i8, ptr %14, align 1
  %16 = sext i8 %15 to i32
  %17 = icmp sge i32 %16, 48
  br i1 %17, label %18, label %25

18:                                               ; preds = %12
  %19 = load ptr, ptr %3, align 8
  %20 = getelementptr inbounds i8, ptr %19, i64 0
  %21 = load i8, ptr %20, align 1
  %22 = sext i8 %21 to i32
  %23 = icmp sle i32 %22, 57
  br i1 %23, label %24, label %25

24:                                               ; preds = %18
  store i32 0, ptr %2, align 4
  br label %58

25:                                               ; preds = %18, %12
  %26 = load ptr, ptr %3, align 8
  %27 = call i32 @slurm_xstrcasecmp(ptr noundef %26, ptr noundef @.str)
  %28 = icmp ne i32 %27, 0
  br i1 %28, label %30, label %29

29:                                               ; preds = %25
  store i32 -1, ptr %2, align 4
  br label %58

30:                                               ; preds = %25
  %31 = load ptr, ptr %3, align 8
  %32 = call i32 @slurm_xstrcasecmp(ptr noundef %31, ptr noundef @.str.1)
  %33 = icmp ne i32 %32, 0
  br i1 %33, label %35, label %34

34:                                               ; preds = %30
  store i32 -2, ptr %2, align 4
  br label %58

35:                                               ; preds = %30
  %36 = load ptr, ptr %3, align 8
  %37 = call i32 @slurm_xstrcasecmp(ptr noundef %36, ptr noundef @.str.3)
  %38 = icmp ne i32 %37, 0
  br i1 %38, label %40, label %39

39:                                               ; preds = %35
  store i32 -3, ptr %2, align 4
  br label %58

40:                                               ; preds = %35
  %41 = load ptr, ptr %3, align 8
  %42 = call i32 @slurm_xstrcasecmp(ptr noundef %41, ptr noundef @.str.2)
  %43 = icmp ne i32 %42, 0
  br i1 %43, label %45, label %44

44:                                               ; preds = %40
  store i32 -4, ptr %2, align 4
  br label %58

45:                                               ; preds = %40
  br label %46

46:                                               ; preds = %45
  br label %47

47:                                               ; preds = %46
  br label %48

48:                                               ; preds = %47
  br label %49

49:                                               ; preds = %48
  br label %50

50:                                               ; preds = %49
  %51 = call i32 @slurm_get_log_level()
  %52 = icmp sge i32 %51, 5
  br i1 %52, label %53, label %55

53:                                               ; preds = %50
  %54 = load ptr, ptr %3, align 8
  call void (i32, ptr, ...) @slurm_log_var(i32 noundef 5, ptr noundef @.str.32, ptr noundef @plugin_type, ptr noundef @__func__._xlate_freq_code, ptr noundef @plugin_type, ptr noundef @__func__._xlate_freq_code, ptr noundef %54)
  br label %55

55:                                               ; preds = %53, %50
  br label %56

56:                                               ; preds = %55
  br label %57

57:                                               ; preds = %56
  store i32 0, ptr %2, align 4
  br label %58

58:                                               ; preds = %57, %44, %39, %34, %29, %24, %11
  %59 = load i32, ptr %2, align 4
  ret i32 %59
}