; Function Attrs: nounwind uwtable
define internal fastcc range(i32 -4, 1) i32 @_xlate_freq_code(ptr noundef nonnull %0) unnamed_addr #0 {
  %2 = load i8, ptr %0, align 1
  %.not = icmp eq i8 %2, 0
  %3 = add i8 %2, -48
  %or.cond = icmp ult i8 %3, 10
  %or.cond16 = or i1 %.not, %or.cond
  br i1 %or.cond16, label %16, label %4

4:                                                ; preds = %1
  %5 = tail call i32 @slurm_xstrcasecmp(ptr noundef nonnull %0, ptr noundef nonnull @.str) #7
  %.not12 = icmp eq i32 %5, 0
  br i1 %.not12, label %16, label %6

6:                                                ; preds = %4
  %7 = tail call i32 @slurm_xstrcasecmp(ptr noundef nonnull %0, ptr noundef nonnull @.str.1) #7
  %.not13 = icmp eq i32 %7, 0
  br i1 %.not13, label %16, label %8

8:                                                ; preds = %6
  %9 = tail call i32 @slurm_xstrcasecmp(ptr noundef nonnull %0, ptr noundef nonnull @.str.3) #7
  %.not14 = icmp eq i32 %9, 0
  br i1 %.not14, label %16, label %10

10:                                               ; preds = %8
  %11 = tail call i32 @slurm_xstrcasecmp(ptr noundef nonnull %0, ptr noundef nonnull @.str.2) #7
  %.not15 = icmp eq i32 %11, 0
  br i1 %.not15, label %16, label %12

12:                                               ; preds = %10
  %13 = tail call i32 @slurm_get_log_level() #7
  %14 = icmp sgt i32 %13, 4
  br i1 %14, label %15, label %16

15:                                               ; preds = %12
  tail call void (i32, ptr, ...) @slurm_log_var(i32 noundef 5, ptr noundef nonnull @.str.32, ptr noundef nonnull @plugin_type, ptr noundef nonnull @__func__._xlate_freq_code, ptr noundef nonnull @plugin_type, ptr noundef nonnull @__func__._xlate_freq_code, ptr noundef nonnull %0) #7
  br label %16

16:                                               ; preds = %12, %15, %10, %8, %6, %4, %1
  %.0 = phi i32 [ 0, %1 ], [ -1, %4 ], [ -2, %6 ], [ -3, %8 ], [ -4, %10 ], [ 0, %15 ], [ 0, %12 ]
  ret i32 %.0
}